; Function Attrs: mustprogress uwtable
define void @_ZN3gmx22MessageStringCollector8appendIfEbRKNSt7__cxx1112basic_stringIcSt11char_traitsIcESaIcEEE(ptr noundef nonnull readonly align 8 captures(none) dereferenceable(8) %0, i1 noundef zeroext %1, ptr noundef nonnull align 8 dereferenceable(32) %2) local_unnamed_addr #0 align 2 {
  br i1 %1, label %4, label %5

4:                                                ; preds = %3
  tail call void @_ZN3gmx22MessageStringCollector6appendERKNSt7__cxx1112basic_stringIcSt11char_traitsIcESaIcEEE(ptr noundef nonnull align 8 dereferenceable(8) %0, ptr noundef nonnull align 8 dereferenceable(32) %2)
  br label %5

5:                                                ; preds = %4, %3
  ret void
}